target datalayout = "e-m:e-p270:32:32-p271:32:32-p272:64:64-i64:64-i128:128-f80:128-n8:16:32:64-S128"
target triple = "x86_64-pc-linux-gnu"

%struct.PgStat_EntryRef = type { ptr, ptr, i32, ptr, %struct.dlist_node }
%struct.dlist_node = type { ptr, ptr }
%struct.PgStat_StatDBEntry = type { i64, i64, i64, i64, i64, i64, i64, i64, i64, i64, i64, i64, i64, i64, i64, i64, i64, i64, i64, i64, i64, i64, i64, i64, i64, i64, i64, i64, i64, i64, i64, i64, i64 }

@pgStatSessionEndCause = dso_local global i32 1, align 4
@MyDatabaseId = external global i32, align 4
@MyBackendType = external global i32, align 4

; Function Attrs: nounwind uwtable
define dso_local ptr @pgstat_prep_database_pending(i32 noundef %0) #0 {
  %2 = alloca i32, align 4
  %3 = alloca ptr, align 8
  store i32 %0, ptr %2, align 4
  call void @llvm.lifetime.start.p0(i64 8, ptr %3) #4
  %4 = load i32, ptr %2, align 4
  %5 = call ptr @pgstat_prep_pending_entry(i32 noundef 1, i32 noundef %4, i64 noundef 0, ptr noundef null)
  store ptr %5, ptr %3, align 8
  %6 = load ptr, ptr %3, align 8
  %7 = getelementptr inbounds nuw %struct.PgStat_EntryRef, ptr %6, i32 0, i32 3
  %8 = load ptr, ptr %7, align 8
  call void @llvm.lifetime.end.p0(i64 8, ptr %3) #4
  ret ptr %8
}

; Function Attrs: nounwind uwtable
define internal zeroext i1 @pgstat_should_report_connstat() #0 {
  %1 = load i32, ptr @MyBackendType, align 4
  %2 = icmp eq i32 %1, 1
  ret i1 %2
}

; Function Attrs: nounwind uwtable
define dso_local void @pgstat_report_disconnect(i32 noundef %0) #0 {
  %2 = alloca i32, align 4
  %3 = alloca ptr, align 8
  %4 = alloca i32, align 4
  store i32 %0, ptr %2, align 4
  call void @llvm.lifetime.start.p0(i64 8, ptr %3) #4
  %5 = call zeroext i1 @pgstat_should_report_connstat()
  br i1 %5, label %7, label %6

6:                                                ; preds = %1
  store i32 1, ptr %4, align 4
  br label %28

7:                                                ; preds = %1
  %8 = load i32, ptr @MyDatabaseId, align 4
  %9 = call ptr @pgstat_prep_database_pending(i32 noundef %8)
  store ptr %9, ptr %3, align 8
  %10 = load i32, ptr @pgStatSessionEndCause, align 4
  switch i32 %10, label %27 [
    i32 0, label %11
    i32 1, label %11
    i32 2, label %12
    i32 3, label %17
    i32 4, label %22
  ]

11:                                               ; preds = %7, %7
  br label %27

12:                                               ; preds = %7
  %13 = load ptr, ptr %3, align 8
  %14 = getelementptr inbounds nuw %struct.PgStat_StatDBEntry, ptr %13, i32 0, i32 27
  %15 = load i64, ptr %14, align 8
  %16 = add i64 %15, 1
  store i64 %16, ptr %14, align 8
  br label %27

17:                                               ; preds = %7
  %18 = load ptr, ptr %3, align 8
  %19 = getelementptr inbounds nuw %struct.PgStat_StatDBEntry, ptr %18, i32 0, i32 28
  %20 = load i64, ptr %19, align 8
  %21 = add i64 %20, 1
  store i64 %21, ptr %19, align 8
  br label %27

22:                                               ; preds = %7
  %23 = load ptr, ptr %3, align 8
  %24 = getelementptr inbounds nuw %struct.PgStat_StatDBEntry, ptr %23, i32 0, i32 29
  %25 = load i64, ptr %24, align 8
  %26 = add i64 %25, 1
  store i64 %26, ptr %24, align 8
  br label %27

27:                                               ; preds = %7, %22, %17, %12, %11
  store i32 0, ptr %4, align 4
  br label %28

28:                                               ; preds = %27, %6
  call void @llvm.lifetime.end.p0(i64 8, ptr %3) #4
  %29 = load i32, ptr %4, align 4
  switch i32 %29, label %31 [
    i32 0, label %30
    i32 1, label %30
  ]

30:                                               ; preds = %28, %28
  ret void

31:                                               ; preds = %28
  unreachable
}