; Function Attrs: nounwind uwtable
define dso_local void @pgstat_report_disconnect(i32 noundef %0) local_unnamed_addr #0 {
  %2 = load i32, ptr @MyBackendType, align 4
  %3 = icmp eq i32 %2, 1
  br i1 %3, label %4, label %17

4:                                                ; preds = %1
  %5 = load i32, ptr @MyDatabaseId, align 4
  %6 = tail call ptr @pgstat_prep_pending_entry(i32 noundef 1, i32 noundef %5, i64 noundef 0, ptr noundef null) #6
  %7 = load i32, ptr @pgStatSessionEndCause, align 4
  %switch.tableidx = add i32 %7, -2
  %8 = icmp ult i32 %switch.tableidx, 3
  br i1 %8, label %switch.lookup, label %17

switch.lookup:                                    ; preds = %4
  %9 = getelementptr inbounds nuw i8, ptr %6, i64 24
  %10 = load ptr, ptr %9, align 8
  %11 = shl nuw nsw i32 %switch.tableidx, 3
  %12 = zext nneg i32 %11 to i64
  %13 = getelementptr inbounds nuw i8, ptr %10, i64 %12
  %14 = getelementptr inbounds nuw i8, ptr %13, i64 216
  %15 = load i64, ptr %14, align 8
  %16 = add i64 %15, 1
  store i64 %16, ptr %14, align 8
  br label %17

17:                                               ; preds = %4, %switch.lookup, %1
  ret void
}